target datalayout = "e-m:e-p270:32:32-p271:32:32-p272:64:64-i64:64-i128:128-f80:128-n8:16:32:64-S128"
target triple = "x86_64-pc-linux-gnu"

%struct.SwsInternal = type { %struct.SwsContext, ptr, ptr, ptr, ptr, i32, [2 x ptr], i32, i32, ptr, i32, i32, i32, i32, i32, i32, i32, i32, i32, i32, i32, i32, i32, i32, i32, i32, i32, i32, ptr, ptr, %struct.RangeList, [3 x ptr], [2 x [4 x i32]], [2 x [4 x ptr]], i32, double, i32, ptr, ptr, i32, [2 x i32], i32, ptr, ptr, [256 x i32], [256 x i32], [256 x float], i32, i32, ptr, i32, ptr, ptr, ptr, ptr, ptr, ptr, ptr, ptr, i32, i32, i32, i32, i32, i32, ptr, ptr, i32, i32, i32, ptr, [8 x i8], [1280 x i32], [1280 x ptr], [1280 x ptr], [1280 x ptr], [176 x i32], [4 x ptr], i32, i32, i32, [4 x i32], [4 x i32], i32, i32, i32, i32, i32, i32, i32, i32, i32, i32, i64, i64, i64, i64, i64, i64, i64, i64, i64, i64, i64, [1024 x i32], [1024 x i32], i32, i64, i64, i64, i64, i64, [1024 x i32], i64, i64, [8 x i16], [8 x i32], ptr, ptr, i32, ptr, ptr, ptr, ptr, [3 x [4 x i16]], [3 x [4 x i16]], ptr, ptr, ptr, ptr, ptr, ptr, ptr, ptr, ptr, ptr, ptr, ptr, ptr, ptr, ptr, ptr, ptr, ptr, ptr, ptr, i32, i32, i64, i64, i32, ptr, i32, ptr, i32, i32, i32, i32, i32, ptr }
%struct.SwsContext = type { ptr, ptr, i32, [2 x double], i32, i32, i32, i32, i32, i32, i32, i32, i32, i32, i32, i32, i32, i32, i32, i32, i32 }
%struct.RangeList = type { ptr, i32, i32 }
%struct.AVFrame = type { [8 x ptr], [8 x i32], ptr, i32, i32, i32, i32, i32, %struct.AVRational, i64, i64, %struct.AVRational, i32, ptr, i32, i32, [8 x ptr], ptr, i32, ptr, i32, i32, i32, i32, i32, i32, i32, i64, ptr, i32, ptr, ptr, i64, i64, i64, i64, ptr, %struct.AVChannelLayout, i64 }
%struct.AVRational = type { i32, i32 }
%struct.AVChannelLayout = type { i32, i32, %union.anon, ptr }
%union.anon = type { i64 }
%struct.Range = type { i32, i32 }

@.str.5 = private unnamed_addr constant [55 x i8] c"Incorrectly aligned output: %u/%u not multiples of %u\0A\00", align 1

; Function Attrs: nounwind uwtable
define i32 @sws_receive_slice_alignment(ptr noundef %0) #0 {
  %2 = alloca i32, align 4
  %3 = alloca ptr, align 8
  %4 = alloca ptr, align 8
  %5 = alloca i32, align 4
  store ptr %0, ptr %3, align 8, !tbaa !90
  call void @llvm.lifetime.start.p0(i64 8, ptr %4) #11
  %6 = load ptr, ptr %3, align 8, !tbaa !90
  %7 = call ptr @sws_internal(ptr noundef %6)
  store ptr %7, ptr %4, align 8, !tbaa !4
  %8 = load ptr, ptr %4, align 8, !tbaa !4
  %9 = getelementptr inbounds nuw %struct.SwsInternal, ptr %8, i32 0, i32 3
  %10 = load ptr, ptr %9, align 16, !tbaa !147
  %11 = icmp ne ptr %10, null
  br i1 %11, label %12, label %21

12:                                               ; preds = %1
  %13 = load ptr, ptr %4, align 8, !tbaa !4
  %14 = getelementptr inbounds nuw %struct.SwsInternal, ptr %13, i32 0, i32 3
  %15 = load ptr, ptr %14, align 16, !tbaa !147
  %16 = getelementptr inbounds ptr, ptr %15, i64 0
  %17 = load ptr, ptr %16, align 8, !tbaa !90
  %18 = call ptr @sws_internal(ptr noundef %17)
  %19 = getelementptr inbounds nuw %struct.SwsInternal, ptr %18, i32 0, i32 155
  %20 = load i32, ptr %19, align 4, !tbaa !148
  store i32 %20, ptr %2, align 4
  store i32 1, ptr %5, align 4
  br label %25

21:                                               ; preds = %1
  %22 = load ptr, ptr %4, align 8, !tbaa !4
  %23 = getelementptr inbounds nuw %struct.SwsInternal, ptr %22, i32 0, i32 155
  %24 = load i32, ptr %23, align 4, !tbaa !148
  store i32 %24, ptr %2, align 4
  store i32 1, ptr %5, align 4
  br label %25

25:                                               ; preds = %21, %12
  call void @llvm.lifetime.end.p0(i64 8, ptr %4) #11
  %26 = load i32, ptr %2, align 4
  ret i32 %26
}

; Function Attrs: inlinehint nounwind uwtable
define internal ptr @sws_internal(ptr noundef %0) #5 {
  %2 = alloca ptr, align 8
  store ptr %0, ptr %2, align 8, !tbaa !90
  %3 = load ptr, ptr %2, align 8, !tbaa !90
  ret ptr %3
}

; Function Attrs: nounwind uwtable
define i32 @sws_receive_slice(ptr noundef %0, i32 noundef %1, i32 noundef %2) #0 {
  %4 = alloca i32, align 4
  %5 = alloca ptr, align 8
  %6 = alloca i32, align 4
  %7 = alloca i32, align 4
  %8 = alloca ptr, align 8
  %9 = alloca i32, align 4
  %10 = alloca [4 x ptr], align 16
  %11 = alloca i32, align 4
  %12 = alloca i32, align 4
  %13 = alloca i32, align 4
  %14 = alloca i32, align 4
  %15 = alloca i32, align 4
  %16 = alloca i64, align 8
  store ptr %0, ptr %5, align 8, !tbaa !90
  store i32 %1, ptr %6, align 4, !tbaa !14
  store i32 %2, ptr %7, align 4, !tbaa !14
  call void @llvm.lifetime.start.p0(i64 8, ptr %8) #11
  %17 = load ptr, ptr %5, align 8, !tbaa !90
  %18 = call ptr @sws_internal(ptr noundef %17)
  store ptr %18, ptr %8, align 8, !tbaa !4
  call void @llvm.lifetime.start.p0(i64 4, ptr %9) #11
  %19 = load ptr, ptr %5, align 8, !tbaa !90
  %20 = call i32 @sws_receive_slice_alignment(ptr noundef %19)
  store i32 %20, ptr %9, align 4, !tbaa !14
  call void @llvm.lifetime.start.p0(i64 32, ptr %10) #11
  %21 = load ptr, ptr %8, align 8, !tbaa !4
  %22 = getelementptr inbounds nuw %struct.SwsInternal, ptr %21, i32 0, i32 30
  %23 = getelementptr inbounds nuw %struct.RangeList, ptr %22, i32 0, i32 1
  %24 = load i32, ptr %23, align 8, !tbaa !131
  %25 = icmp eq i32 %24, 1
  br i1 %25, label %26, label %47

26:                                               ; preds = %3
  %27 = load ptr, ptr %8, align 8, !tbaa !4
  %28 = getelementptr inbounds nuw %struct.SwsInternal, ptr %27, i32 0, i32 30
  %29 = getelementptr inbounds nuw %struct.RangeList, ptr %28, i32 0, i32 0
  %30 = load ptr, ptr %29, align 16, !tbaa !149
  %31 = getelementptr inbounds %struct.Range, ptr %30, i64 0
  %32 = getelementptr inbounds nuw %struct.Range, ptr %31, i32 0, i32 0
  %33 = load i32, ptr %32, align 4, !tbaa !150
  %34 = icmp eq i32 %33, 0
  br i1 %34, label %35, label %47

35:                                               ; preds = %26
  %36 = load ptr, ptr %8, align 8, !tbaa !4
  %37 = getelementptr inbounds nuw %struct.SwsInternal, ptr %36, i32 0, i32 30
  %38 = getelementptr inbounds nuw %struct.RangeList, ptr %37, i32 0, i32 0
  %39 = load ptr, ptr %38, align 16, !tbaa !149
  %40 = getelementptr inbounds %struct.Range, ptr %39, i64 0
  %41 = getelementptr inbounds nuw %struct.Range, ptr %40, i32 0, i32 1
  %42 = load i32, ptr %41, align 4, !tbaa !152
  %43 = load ptr, ptr %5, align 8, !tbaa !90
  %44 = getelementptr inbounds nuw %struct.SwsContext, ptr %43, i32 0, i32 9
  %45 = load i32, ptr %44, align 4, !tbaa !153
  %46 = icmp eq i32 %42, %45
  br i1 %46, label %48, label %47

47:                                               ; preds = %35, %26, %3
  store i32 -11, ptr %4, align 4
  store i32 1, ptr %11, align 4
  br label %217

48:                                               ; preds = %35
  %49 = load i32, ptr %6, align 4, !tbaa !14
  %50 = icmp ugt i32 %49, 0
  br i1 %50, label %57, label %51

51:                                               ; preds = %48
  %52 = load i32, ptr %7, align 4, !tbaa !14
  %53 = load ptr, ptr %5, align 8, !tbaa !90
  %54 = getelementptr inbounds nuw %struct.SwsContext, ptr %53, i32 0, i32 11
  %55 = load i32, ptr %54, align 4, !tbaa !143
  %56 = icmp ult i32 %52, %55
  br i1 %56, label %57, label %72

57:                                               ; preds = %51, %48
  %58 = load i32, ptr %6, align 4, !tbaa !14
  %59 = load i32, ptr %9, align 4, !tbaa !14
  %60 = urem i32 %58, %59
  %61 = icmp ne i32 %60, 0
  br i1 %61, label %67, label %62

62:                                               ; preds = %57
  %63 = load i32, ptr %7, align 4, !tbaa !14
  %64 = load i32, ptr %9, align 4, !tbaa !14
  %65 = urem i32 %63, %64
  %66 = icmp ne i32 %65, 0
  br i1 %66, label %67, label %72

67:                                               ; preds = %62, %57
  %68 = load ptr, ptr %8, align 8, !tbaa !4
  %69 = load i32, ptr %6, align 4, !tbaa !14
  %70 = load i32, ptr %7, align 4, !tbaa !14
  %71 = load i32, ptr %9, align 4, !tbaa !14
  call void (ptr, i32, ptr, ...) @av_log(ptr noundef %68, i32 noundef 16, ptr noundef @.str.5, i32 noundef %69, i32 noundef %70, i32 noundef %71)
  store i32 -22, ptr %4, align 4
  store i32 1, ptr %11, align 4
  br label %217

72:                                               ; preds = %62, %51
  %73 = load ptr, ptr %8, align 8, !tbaa !4
  %74 = getelementptr inbounds nuw %struct.SwsInternal, ptr %73, i32 0, i32 2
  %75 = load ptr, ptr %74, align 8, !tbaa !154
  %76 = icmp ne ptr %75, null
  br i1 %76, label %77, label %140

77:                                               ; preds = %72
  call void @llvm.lifetime.start.p0(i64 4, ptr %12) #11
  %78 = load ptr, ptr %8, align 8, !tbaa !4
  %79 = getelementptr inbounds nuw %struct.SwsInternal, ptr %78, i32 0, i32 5
  %80 = load i32, ptr %79, align 16, !tbaa !155
  store i32 %80, ptr %12, align 4, !tbaa !14
  call void @llvm.lifetime.start.p0(i64 4, ptr %13) #11
  store i32 0, ptr %13, align 4, !tbaa !14
  %81 = load ptr, ptr %8, align 8, !tbaa !4
  %82 = getelementptr inbounds nuw %struct.SwsInternal, ptr %81, i32 0, i32 3
  %83 = load ptr, ptr %82, align 16, !tbaa !147
  %84 = getelementptr inbounds ptr, ptr %83, i64 0
  %85 = load ptr, ptr %84, align 8, !tbaa !90
  %86 = getelementptr inbounds nuw %struct.SwsContext, ptr %85, i32 0, i32 5
  %87 = load i32, ptr %86, align 4, !tbaa !156
  %88 = icmp eq i32 %87, 3
  br i1 %88, label %89, label %90

89:                                               ; preds = %77
  store i32 1, ptr %12, align 4, !tbaa !14
  br label %90

90:                                               ; preds = %89, %77
  %91 = load i32, ptr %6, align 4, !tbaa !14
  %92 = load ptr, ptr %8, align 8, !tbaa !4
  %93 = getelementptr inbounds nuw %struct.SwsInternal, ptr %92, i32 0, i32 7
  store i32 %91, ptr %93, align 8, !tbaa !157
  %94 = load i32, ptr %7, align 4, !tbaa !14
  %95 = load ptr, ptr %8, align 8, !tbaa !4
  %96 = getelementptr inbounds nuw %struct.SwsInternal, ptr %95, i32 0, i32 8
  store i32 %94, ptr %96, align 4, !tbaa !158
  %97 = load ptr, ptr %8, align 8, !tbaa !4
  %98 = getelementptr inbounds nuw %struct.SwsInternal, ptr %97, i32 0, i32 2
  %99 = load ptr, ptr %98, align 8, !tbaa !154
  %100 = load i32, ptr %12, align 4, !tbaa !14
  call void @avpriv_slicethread_execute(ptr noundef %99, i32 noundef %100, i32 noundef 0)
  call void @llvm.lifetime.start.p0(i64 4, ptr %14) #11
  store i32 0, ptr %14, align 4, !tbaa !14
  br label %101

101:                                              ; preds = %126, %90
  %102 = load i32, ptr %14, align 4, !tbaa !14
  %103 = load ptr, ptr %8, align 8, !tbaa !4
  %104 = getelementptr inbounds nuw %struct.SwsInternal, ptr %103, i32 0, i32 5
  %105 = load i32, ptr %104, align 16, !tbaa !155
  %106 = icmp slt i32 %102, %105
  br i1 %106, label %108, label %107

107:                                              ; preds = %101
  store i32 2, ptr %11, align 4
  br label %129

108:                                              ; preds = %101
  %109 = load ptr, ptr %8, align 8, !tbaa !4
  %110 = getelementptr inbounds nuw %struct.SwsInternal, ptr %109, i32 0, i32 4
  %111 = load ptr, ptr %110, align 8, !tbaa !159
  %112 = load i32, ptr %14, align 4, !tbaa !14
  %113 = sext i32 %112 to i64
  %114 = getelementptr inbounds i32, ptr %111, i64 %113
  %115 = load i32, ptr %114, align 4, !tbaa !14
  %116 = icmp slt i32 %115, 0
  br i1 %116, label %117, label %125

117:                                              ; preds = %108
  %118 = load ptr, ptr %8, align 8, !tbaa !4
  %119 = getelementptr inbounds nuw %struct.SwsInternal, ptr %118, i32 0, i32 4
  %120 = load ptr, ptr %119, align 8, !tbaa !159
  %121 = load i32, ptr %14, align 4, !tbaa !14
  %122 = sext i32 %121 to i64
  %123 = getelementptr inbounds i32, ptr %120, i64 %122
  %124 = load i32, ptr %123, align 4, !tbaa !14
  store i32 %124, ptr %13, align 4, !tbaa !14
  store i32 2, ptr %11, align 4
  br label %129

125:                                              ; preds = %108
  br label %126

126:                                              ; preds = %125
  %127 = load i32, ptr %14, align 4, !tbaa !14
  %128 = add nsw i32 %127, 1
  store i32 %128, ptr %14, align 4, !tbaa !14
  br label %101, !llvm.loop !160

129:                                              ; preds = %117, %107
  call void @llvm.lifetime.end.p0(i64 4, ptr %14) #11
  br label %130

130:                                              ; preds = %129
  %131 = load ptr, ptr %8, align 8, !tbaa !4
  %132 = getelementptr inbounds nuw %struct.SwsInternal, ptr %131, i32 0, i32 4
  %133 = load ptr, ptr %132, align 8, !tbaa !159
  %134 = load ptr, ptr %8, align 8, !tbaa !4
  %135 = getelementptr inbounds nuw %struct.SwsInternal, ptr %134, i32 0, i32 5
  %136 = load i32, ptr %135, align 16, !tbaa !155
  %137 = sext i32 %136 to i64
  %138 = mul i64 %137, 4
  call void @llvm.memset.p0.i64(ptr align 4 %133, i8 0, i64 %138, i1 false)
  %139 = load i32, ptr %13, align 4, !tbaa !14
  store i32 %139, ptr %4, align 4
  store i32 1, ptr %11, align 4
  call void @llvm.lifetime.end.p0(i64 4, ptr %13) #11
  call void @llvm.lifetime.end.p0(i64 4, ptr %12) #11
  br label %217

140:                                              ; preds = %72
  call void @llvm.lifetime.start.p0(i64 4, ptr %15) #11
  store i32 0, ptr %15, align 4, !tbaa !14
  br label %141

141:                                              ; preds = %190, %140
  %142 = load i32, ptr %15, align 4, !tbaa !14
  %143 = sext i32 %142 to i64
  %144 = icmp ult i64 %143, 4
  br i1 %144, label %146, label %145

145:                                              ; preds = %141
  store i32 5, ptr %11, align 4
  call void @llvm.lifetime.end.p0(i64 4, ptr %15) #11
  br label %193

146:                                              ; preds = %141
  call void @llvm.lifetime.start.p0(i64 8, ptr %16) #11
  %147 = load ptr, ptr %8, align 8, !tbaa !4
  %148 = getelementptr inbounds nuw %struct.SwsInternal, ptr %147, i32 0, i32 29
  %149 = load ptr, ptr %148, align 8, !tbaa !130
  %150 = getelementptr inbounds nuw %struct.AVFrame, ptr %149, i32 0, i32 1
  %151 = load i32, ptr %15, align 4, !tbaa !14
  %152 = sext i32 %151 to i64
  %153 = getelementptr inbounds [8 x i32], ptr %150, i64 0, i64 %152
  %154 = load i32, ptr %153, align 4, !tbaa !14
  %155 = sext i32 %154 to i64
  %156 = load i32, ptr %6, align 4, !tbaa !14
  %157 = load ptr, ptr %8, align 8, !tbaa !4
  %158 = getelementptr inbounds nuw %struct.SwsInternal, ptr %157, i32 0, i32 25
  %159 = load i32, ptr %158, align 4, !tbaa !67
  %160 = lshr i32 %156, %159
  %161 = zext i32 %160 to i64
  %162 = mul nsw i64 %155, %161
  store i64 %162, ptr %16, align 8, !tbaa !105
  %163 = load i64, ptr %16, align 8, !tbaa !105
  %164 = icmp ne i64 %163, 0
  br i1 %164, label %165, label %176

165:                                              ; preds = %146
  %166 = load ptr, ptr %8, align 8, !tbaa !4
  %167 = getelementptr inbounds nuw %struct.SwsInternal, ptr %166, i32 0, i32 29
  %168 = load ptr, ptr %167, align 8, !tbaa !130
  %169 = getelementptr inbounds nuw %struct.AVFrame, ptr %168, i32 0, i32 0
  %170 = load i32, ptr %15, align 4, !tbaa !14
  %171 = sext i32 %170 to i64
  %172 = getelementptr inbounds [8 x ptr], ptr %169, i64 0, i64 %171
  %173 = load ptr, ptr %172, align 8, !tbaa !60
  %174 = load i64, ptr %16, align 8, !tbaa !105
  %175 = getelementptr inbounds i8, ptr %173, i64 %174
  br label %185

176:                                              ; preds = %146
  %177 = load ptr, ptr %8, align 8, !tbaa !4
  %178 = getelementptr inbounds nuw %struct.SwsInternal, ptr %177, i32 0, i32 29
  %179 = load ptr, ptr %178, align 8, !tbaa !130
  %180 = getelementptr inbounds nuw %struct.AVFrame, ptr %179, i32 0, i32 0
  %181 = load i32, ptr %15, align 4, !tbaa !14
  %182 = sext i32 %181 to i64
  %183 = getelementptr inbounds [8 x ptr], ptr %180, i64 0, i64 %182
  %184 = load ptr, ptr %183, align 8, !tbaa !60
  br label %185

185:                                              ; preds = %176, %165
  %186 = phi ptr [ %175, %165 ], [ %184, %176 ]
  %187 = load i32, ptr %15, align 4, !tbaa !14
  %188 = sext i32 %187 to i64
  %189 = getelementptr inbounds [4 x ptr], ptr %10, i64 0, i64 %188
  store ptr %186, ptr %189, align 8, !tbaa !60
  call void @llvm.lifetime.end.p0(i64 8, ptr %16) #11
  br label %190

190:                                              ; preds = %185
  %191 = load i32, ptr %15, align 4, !tbaa !14
  %192 = add nsw i32 %191, 1
  store i32 %192, ptr %15, align 4, !tbaa !14
  br label %141, !llvm.loop !161

193:                                              ; preds = %145
  %194 = load ptr, ptr %5, align 8, !tbaa !90
  %195 = load ptr, ptr %8, align 8, !tbaa !4
  %196 = getelementptr inbounds nuw %struct.SwsInternal, ptr %195, i32 0, i32 28
  %197 = load ptr, ptr %196, align 16, !tbaa !129
  %198 = getelementptr inbounds nuw %struct.AVFrame, ptr %197, i32 0, i32 0
  %199 = getelementptr inbounds [8 x ptr], ptr %198, i64 0, i64 0
  %200 = load ptr, ptr %8, align 8, !tbaa !4
  %201 = getelementptr inbounds nuw %struct.SwsInternal, ptr %200, i32 0, i32 28
  %202 = load ptr, ptr %201, align 16, !tbaa !129
  %203 = getelementptr inbounds nuw %struct.AVFrame, ptr %202, i32 0, i32 1
  %204 = getelementptr inbounds [8 x i32], ptr %203, i64 0, i64 0
  %205 = load ptr, ptr %5, align 8, !tbaa !90
  %206 = getelementptr inbounds nuw %struct.SwsContext, ptr %205, i32 0, i32 9
  %207 = load i32, ptr %206, align 4, !tbaa !153
  %208 = getelementptr inbounds [4 x ptr], ptr %10, i64 0, i64 0
  %209 = load ptr, ptr %8, align 8, !tbaa !4
  %210 = getelementptr inbounds nuw %struct.SwsInternal, ptr %209, i32 0, i32 29
  %211 = load ptr, ptr %210, align 8, !tbaa !130
  %212 = getelementptr inbounds nuw %struct.AVFrame, ptr %211, i32 0, i32 1
  %213 = getelementptr inbounds [8 x i32], ptr %212, i64 0, i64 0
  %214 = load i32, ptr %6, align 4, !tbaa !14
  %215 = load i32, ptr %7, align 4, !tbaa !14
  %216 = call i32 @scale_internal(ptr noundef %194, ptr noundef %199, ptr noundef %204, i32 noundef 0, i32 noundef %207, ptr noundef %208, ptr noundef %213, i32 noundef %214, i32 noundef %215)
  store i32 %216, ptr %4, align 4
  store i32 1, ptr %11, align 4
  br label %217

217:                                              ; preds = %193, %130, %67, %47
  call void @llvm.lifetime.end.p0(i64 32, ptr %10) #11
  call void @llvm.lifetime.end.p0(i64 4, ptr %9) #11
  call void @llvm.lifetime.end.p0(i64 8, ptr %8) #11
  %218 = load i32, ptr %4, align 4
  ret i32 %218
}