; Function Attrs: nounwind uwtable
define i32 @sws_receive_slice(ptr noundef %0, i32 noundef %1, i32 noundef %2) local_unnamed_addr #0 {
  %4 = alloca [4 x ptr], align 16
  %5 = getelementptr inbounds nuw i8, ptr %0, i64 128
  %6 = load ptr, ptr %5, align 16, !tbaa !136
  %.not.i = icmp eq ptr %6, null
  br i1 %.not.i, label %sws_receive_slice_alignment.exit, label %7

7:                                                ; preds = %3
  %8 = load ptr, ptr %6, align 8, !tbaa !137
  br label %sws_receive_slice_alignment.exit

sws_receive_slice_alignment.exit:                 ; preds = %3, %7
  %.pn.i = phi ptr [ %8, %7 ], [ %0, %3 ]
  %.0.in.i = getelementptr inbounds nuw i8, ptr %.pn.i, i64 53188
  %.0.i = load i32, ptr %.0.in.i, align 4, !tbaa !138
  call void @llvm.lifetime.start.p0(i64 32, ptr nonnull %4) #11
  %9 = getelementptr inbounds nuw i8, ptr %0, i64 280
  %10 = load i32, ptr %9, align 8, !tbaa !121
  %11 = icmp eq i32 %10, 1
  br i1 %11, label %12, label %77

12:                                               ; preds = %sws_receive_slice_alignment.exit
  %13 = getelementptr inbounds nuw i8, ptr %0, i64 272
  %14 = load ptr, ptr %13, align 16, !tbaa !139
  %15 = load i32, ptr %14, align 4, !tbaa !140
  %16 = icmp eq i32 %15, 0
  br i1 %16, label %17, label %77

17:                                               ; preds = %12
  %18 = getelementptr inbounds nuw i8, ptr %14, i64 4
  %19 = load i32, ptr %18, align 4, !tbaa !142
  %20 = getelementptr inbounds nuw i8, ptr %0, i64 60
  %21 = load i32, ptr %20, align 4, !tbaa !143
  %22 = icmp eq i32 %19, %21
  br i1 %22, label %23, label %77

23:                                               ; preds = %17
  %.not = icmp eq i32 %1, 0
  br i1 %.not, label %24, label %28

24:                                               ; preds = %23
  %25 = getelementptr inbounds nuw i8, ptr %0, i64 68
  %26 = load i32, ptr %25, align 4, !tbaa !132
  %27 = icmp ult i32 %2, %26
  br i1 %27, label %28, label %33

28:                                               ; preds = %24, %23
  %29 = urem i32 %1, %.0.i
  %.not63 = icmp eq i32 %29, 0
  br i1 %.not63, label %30, label %32

30:                                               ; preds = %28
  %31 = urem i32 %2, %.0.i
  %.not64 = icmp eq i32 %31, 0
  br i1 %.not64, label %33, label %32

32:                                               ; preds = %30, %28
  tail call void (ptr, i32, ptr, ...) @av_log(ptr noundef nonnull %0, i32 noundef 16, ptr noundef nonnull @.str.5, i32 noundef %1, i32 noundef %2, i32 noundef %.0.i) #11
  br label %77

33:                                               ; preds = %30, %24
  %34 = getelementptr inbounds nuw i8, ptr %0, i64 120
  %35 = load ptr, ptr %34, align 8, !tbaa !144
  %.not65 = icmp eq ptr %35, null
  br i1 %.not65, label %.preheader, label %43

.preheader:                                       ; preds = %33
  %36 = getelementptr inbounds nuw i8, ptr %0, i64 264
  %37 = load ptr, ptr %36, align 8, !tbaa !120
  %38 = getelementptr inbounds nuw i8, ptr %37, i64 64
  %39 = getelementptr inbounds nuw i8, ptr %0, i64 244
  %40 = load i32, ptr %39, align 4, !tbaa !65
  %41 = lshr i32 %1, %40
  %42 = zext i32 %41 to i64
  br label %68

43:                                               ; preds = %33
  %44 = getelementptr inbounds nuw i8, ptr %0, i64 144
  %45 = load i32, ptr %44, align 16, !tbaa !145
  %46 = load ptr, ptr %6, align 8, !tbaa !137
  %47 = getelementptr inbounds nuw i8, ptr %46, i64 44
  %48 = load i32, ptr %47, align 4, !tbaa !146
  %49 = icmp eq i32 %48, 3
  %spec.select = select i1 %49, i32 1, i32 %45
  %50 = getelementptr inbounds nuw i8, ptr %0, i64 168
  store i32 %1, ptr %50, align 8, !tbaa !147
  %51 = getelementptr inbounds nuw i8, ptr %0, i64 172
  store i32 %2, ptr %51, align 4, !tbaa !148
  tail call void @avpriv_slicethread_execute(ptr noundef nonnull %35, i32 noundef %spec.select, i32 noundef 0) #11
  %52 = load i32, ptr %44, align 16, !tbaa !145
  %53 = icmp sgt i32 %52, 0
  %54 = getelementptr inbounds nuw i8, ptr %0, i64 136
  %55 = load ptr, ptr %54, align 8, !tbaa !149
  br i1 %53, label %.lr.ph, label %._crit_edge

.lr.ph:                                           ; preds = %43
  %wide.trip.count = zext nneg i32 %52 to i64
  br label %57

56:                                               ; preds = %57
  %indvars.iv.next = add nuw nsw i64 %indvars.iv, 1
  %exitcond.not = icmp eq i64 %indvars.iv.next, %wide.trip.count
  br i1 %exitcond.not, label %._crit_edge, label %57, !llvm.loop !150

57:                                               ; preds = %.lr.ph, %56
  %indvars.iv = phi i64 [ 0, %.lr.ph ], [ %indvars.iv.next, %56 ]
  %58 = getelementptr inbounds nuw i32, ptr %55, i64 %indvars.iv
  %59 = load i32, ptr %58, align 4, !tbaa !49
  %60 = icmp slt i32 %59, 0
  br i1 %60, label %._crit_edge, label %56

._crit_edge:                                      ; preds = %56, %57, %43
  %.058 = phi i32 [ 0, %43 ], [ %59, %57 ], [ 0, %56 ]
  %61 = sext i32 %52 to i64
  %62 = shl nsw i64 %61, 2
  tail call void @llvm.memset.p0.i64(ptr align 4 %55, i8 0, i64 %62, i1 false)
  br label %77

63:                                               ; preds = %68
  %64 = getelementptr inbounds nuw i8, ptr %0, i64 256
  %65 = load ptr, ptr %64, align 16, !tbaa !119
  %66 = getelementptr inbounds nuw i8, ptr %65, i64 64
  %67 = call fastcc i32 @scale_internal(ptr noundef nonnull %0, ptr noundef %65, ptr noundef nonnull %66, i32 noundef 0, i32 noundef %19, ptr noundef nonnull %4, ptr noundef nonnull %38, i32 noundef %1, i32 noundef %2)
  br label %77

68:                                               ; preds = %.preheader, %68
  %indvars.iv74 = phi i64 [ 0, %.preheader ], [ %indvars.iv.next75, %68 ]
  %69 = getelementptr inbounds nuw [8 x i32], ptr %38, i64 0, i64 %indvars.iv74
  %70 = load i32, ptr %69, align 4, !tbaa !49
  %71 = sext i32 %70 to i64
  %72 = mul nsw i64 %42, %71
  %73 = getelementptr inbounds nuw [8 x ptr], ptr %37, i64 0, i64 %indvars.iv74
  %74 = load ptr, ptr %73, align 8, !tbaa !58
  %75 = getelementptr inbounds i8, ptr %74, i64 %72
  %76 = getelementptr inbounds nuw [4 x ptr], ptr %4, i64 0, i64 %indvars.iv74
  store ptr %75, ptr %76, align 8, !tbaa !58
  %indvars.iv.next75 = add nuw nsw i64 %indvars.iv74, 1
  %exitcond77.not = icmp eq i64 %indvars.iv.next75, 4
  br i1 %exitcond77.not, label %63, label %68, !llvm.loop !151

77:                                               ; preds = %sws_receive_slice_alignment.exit, %12, %17, %63, %._crit_edge, %32
  %.0 = phi i32 [ -22, %32 ], [ %.058, %._crit_edge ], [ %67, %63 ], [ -11, %17 ], [ -11, %12 ], [ -11, %sws_receive_slice_alignment.exit ]
  call void @llvm.lifetime.end.p0(i64 32, ptr nonnull %4) #11
  ret i32 %.0
}